
siren.elf:     file format elf32-avr

Sections:
Idx Name          Size      VMA       LMA       File off  Algn
  0 .text         000003a0  00000000  00000000  00000054  2**1
                  CONTENTS, ALLOC, LOAD, READONLY, CODE
  1 .comment      00000030  00000000  00000000  000003f4  2**0
                  CONTENTS, READONLY
  2 .debug_aranges 00000030  00000000  00000000  00000424  2**0
                  CONTENTS, READONLY, DEBUGGING
  3 .debug_info   00000a80  00000000  00000000  00000454  2**0
                  CONTENTS, READONLY, DEBUGGING
  4 .debug_abbrev 00000158  00000000  00000000  00000ed4  2**0
                  CONTENTS, READONLY, DEBUGGING
  5 .debug_line   000001a1  00000000  00000000  0000102c  2**0
                  CONTENTS, READONLY, DEBUGGING
  6 .debug_frame  00000050  00000000  00000000  000011d0  2**2
                  CONTENTS, READONLY, DEBUGGING
  7 .debug_str    000001ac  00000000  00000000  00001220  2**0
                  CONTENTS, READONLY, DEBUGGING
  8 .debug_loc    000001ac  00000000  00000000  000013cc  2**0
                  CONTENTS, READONLY, DEBUGGING
  9 .debug_ranges 00000020  00000000  00000000  00001578  2**0
                  CONTENTS, READONLY, DEBUGGING

Disassembly of section .text:

00000000 <__vectors>:
   0:	12 c0       	rjmp	.+36     	; 0x26 <__ctors_end>
   2:	17 c0       	rjmp	.+46     	; 0x32 <__bad_interrupt>
   4:	16 c0       	rjmp	.+44     	; 0x32 <__bad_interrupt>
   6:	15 c0       	rjmp	.+42     	; 0x32 <__bad_interrupt>
   8:	14 c0       	rjmp	.+40     	; 0x32 <__bad_interrupt>
   a:	13 c0       	rjmp	.+38     	; 0x32 <__bad_interrupt>
   c:	12 c0       	rjmp	.+36     	; 0x32 <__bad_interrupt>
   e:	11 c0       	rjmp	.+34     	; 0x32 <__bad_interrupt>
  10:	10 c0       	rjmp	.+32     	; 0x32 <__bad_interrupt>
  12:	0f c0       	rjmp	.+30     	; 0x32 <__bad_interrupt>
  14:	0e c0       	rjmp	.+28     	; 0x32 <__bad_interrupt>
  16:	0d c0       	rjmp	.+26     	; 0x32 <__bad_interrupt>
  18:	0c c0       	rjmp	.+24     	; 0x32 <__bad_interrupt>
  1a:	0b c0       	rjmp	.+22     	; 0x32 <__bad_interrupt>
  1c:	0a c0       	rjmp	.+20     	; 0x32 <__bad_interrupt>
  1e:	09 c0       	rjmp	.+18     	; 0x32 <__bad_interrupt>
  20:	08 c0       	rjmp	.+16     	; 0x32 <__bad_interrupt>
  22:	07 c0       	rjmp	.+14     	; 0x32 <__bad_interrupt>
  24:	06 c0       	rjmp	.+12     	; 0x32 <__bad_interrupt>

00000026 <__ctors_end>:
  26:	11 24       	eor	r1, r1
  28:	1f be       	out	0x3f, r1	; 63
  2a:	cf ed       	ldi	r28, 0xDF	; 223
  2c:	cd bf       	out	0x3d, r28	; 61
  2e:	40 d0       	rcall	.+128    	; 0xb0 <main>
  30:	b5 c1       	rjmp	.+874    	; 0x39c <_exit>

00000032 <__bad_interrupt>:
  32:	e6 cf       	rjmp	.-52     	; 0x0 <__vectors>

00000034 <initialization>:
		while(1);
	}
}

void initialization(void){
	DDRD |= (1<<PD5);//make PD6 an output
  34:	8d 9a       	sbi	0x11, 5	; 17
  36:	08 95       	ret

00000038 <note>:
}

void note(int frequency, int seconds){ //f = 255 hz: t = 1/255 = 3.2ms/2 = 1.96 ms
  38:	cf 93       	push	r28
  3a:	df 93       	push	r29
  3c:	ec 01       	movw	r28, r24
	int i, j;
	int cycles;
	int time;
	DDRD |= (1<<PD5);//makes PD5 an output
  3e:	8d 9a       	sbi	0x11, 5	; 17
	time = 50000/frequency;//each count is half note
  40:	9c 01       	movw	r18, r24
  42:	44 27       	eor	r20, r20
  44:	37 fd       	sbrc	r19, 7
  46:	40 95       	com	r20
  48:	54 2f       	mov	r21, r20
  4a:	60 e5       	ldi	r22, 0x50	; 80
  4c:	73 ec       	ldi	r23, 0xC3	; 195
  4e:	80 e0       	ldi	r24, 0x00	; 0
  50:	90 e0       	ldi	r25, 0x00	; 0
  52:	66 d1       	rcall	.+716    	; 0x320 <__divmodsi4>
	time = time/2; 
  54:	c9 01       	movw	r24, r18
  56:	99 23       	and	r25, r25
  58:	0c f4       	brge	.+2      	; 0x5c <__SREG__+0x1d>
  5a:	01 96       	adiw	r24, 0x01	; 1
  5c:	9c 01       	movw	r18, r24
  5e:	35 95       	asr	r19
  60:	27 95       	ror	r18
	//cycles = (seconds*1000000)/frequency; //calculates required cycles
	for(j = 0; j < frequency; j++){
  62:	1c 16       	cp	r1, r28
  64:	1d 06       	cpc	r1, r29
  66:	0c f5       	brge	.+66     	; 0xaa <__SREG__+0x6b>
  68:	40 e0       	ldi	r20, 0x00	; 0
  6a:	50 e0       	ldi	r21, 0x00	; 0
		PORTD |= (1 << PD5);
		for(i = 0; i < time; i++){
  6c:	70 e0       	ldi	r23, 0x00	; 0
  6e:	60 e0       	ldi	r22, 0x00	; 0
	DDRD |= (1<<PD5);//makes PD5 an output
	time = 50000/frequency;//each count is half note
	time = time/2; 
	//cycles = (seconds*1000000)/frequency; //calculates required cycles
	for(j = 0; j < frequency; j++){
		PORTD |= (1 << PD5);
  70:	95 9a       	sbi	0x12, 5	; 18
		for(i = 0; i < time; i++){
  72:	12 16       	cp	r1, r18
  74:	13 06       	cpc	r1, r19
  76:	9c f4       	brge	.+38     	; 0x9e <__SREG__+0x5f>
  78:	87 2f       	mov	r24, r23
  7a:	96 2f       	mov	r25, r22
	#else
		//round up by default
		__ticks_dc = (uint32_t)(ceil(fabs(__tmp)));
	#endif

	__builtin_avr_delay_cycles(__ticks_dc);
  7c:	00 00       	nop
  7e:	01 96       	adiw	r24, 0x01	; 1
  80:	82 17       	cp	r24, r18
  82:	93 07       	cpc	r25, r19
  84:	d9 f7       	brne	.-10     	; 0x7c <__SREG__+0x3d>
  86:	0d c0       	rjmp	.+26     	; 0xa2 <__SREG__+0x63>
  88:	00 00       	nop
			_delay_us(1);
		}
		PORTD &= ~(1 << PD5);
		for(i = 0; i < time; i++){
  8a:	01 96       	adiw	r24, 0x01	; 1
  8c:	82 17       	cp	r24, r18
  8e:	93 07       	cpc	r25, r19
  90:	d9 f7       	brne	.-10     	; 0x88 <__SREG__+0x49>
	int time;
	DDRD |= (1<<PD5);//makes PD5 an output
	time = 50000/frequency;//each count is half note
	time = time/2; 
	//cycles = (seconds*1000000)/frequency; //calculates required cycles
	for(j = 0; j < frequency; j++){
  92:	4f 5f       	subi	r20, 0xFF	; 255
  94:	5f 4f       	sbci	r21, 0xFF	; 255
  96:	4c 17       	cp	r20, r28
  98:	5d 07       	cpc	r21, r29
  9a:	51 f7       	brne	.-44     	; 0x70 <__SREG__+0x31>
  9c:	06 c0       	rjmp	.+12     	; 0xaa <__SREG__+0x6b>
		PORTD |= (1 << PD5);
		for(i = 0; i < time; i++){
			_delay_us(1);
		}
		PORTD &= ~(1 << PD5);
  9e:	95 98       	cbi	0x12, 5	; 18
  a0:	f8 cf       	rjmp	.-16     	; 0x92 <__SREG__+0x53>
  a2:	95 98       	cbi	0x12, 5	; 18
		for(i = 0; i < time; i++){
  a4:	87 2f       	mov	r24, r23
  a6:	96 2f       	mov	r25, r22
  a8:	ef cf       	rjmp	.-34     	; 0x88 <__SREG__+0x49>
			_delay_us(1);
		}
	}
}
  aa:	df 91       	pop	r29
  ac:	cf 91       	pop	r28
  ae:	08 95       	ret

000000b0 <main>:
D4,G3,E4,E4,F4,G4,G4,F4,E4,D4,C4,C4,D4,E4,D4,C4,C4};
*/

int main(void)
{
	initialization();
  b0:	c1 df       	rcall	.-126    	; 0x34 <initialization>
    while(1)
    {
		//E4,E4,F4,G4,G4,F4,E4,D4,C4,C4,D4,E4,E4
        note(E4, 2);
  b2:	62 e0       	ldi	r22, 0x02	; 2
  b4:	70 e0       	ldi	r23, 0x00	; 0
  b6:	8a e4       	ldi	r24, 0x4A	; 74
  b8:	91 e0       	ldi	r25, 0x01	; 1
  ba:	be df       	rcall	.-132    	; 0x38 <note>
		note(E4, 2);
  bc:	62 e0       	ldi	r22, 0x02	; 2
  be:	70 e0       	ldi	r23, 0x00	; 0
  c0:	8a e4       	ldi	r24, 0x4A	; 74
  c2:	91 e0       	ldi	r25, 0x01	; 1
  c4:	b9 df       	rcall	.-142    	; 0x38 <note>
		note(F4, 2);
  c6:	62 e0       	ldi	r22, 0x02	; 2
  c8:	70 e0       	ldi	r23, 0x00	; 0
  ca:	8d e5       	ldi	r24, 0x5D	; 93
  cc:	91 e0       	ldi	r25, 0x01	; 1
  ce:	b4 df       	rcall	.-152    	; 0x38 <note>
		note(G4, 2);
  d0:	62 e0       	ldi	r22, 0x02	; 2
  d2:	70 e0       	ldi	r23, 0x00	; 0
  d4:	88 e8       	ldi	r24, 0x88	; 136
  d6:	91 e0       	ldi	r25, 0x01	; 1
  d8:	af df       	rcall	.-162    	; 0x38 <note>
		note(G4, 2);
  da:	62 e0       	ldi	r22, 0x02	; 2
  dc:	70 e0       	ldi	r23, 0x00	; 0
  de:	88 e8       	ldi	r24, 0x88	; 136
  e0:	91 e0       	ldi	r25, 0x01	; 1
  e2:	aa df       	rcall	.-172    	; 0x38 <note>
		note(F4, 2);
  e4:	62 e0       	ldi	r22, 0x02	; 2
  e6:	70 e0       	ldi	r23, 0x00	; 0
  e8:	8d e5       	ldi	r24, 0x5D	; 93
  ea:	91 e0       	ldi	r25, 0x01	; 1
  ec:	a5 df       	rcall	.-182    	; 0x38 <note>
		note(E4, 2);
  ee:	62 e0       	ldi	r22, 0x02	; 2
  f0:	70 e0       	ldi	r23, 0x00	; 0
  f2:	8a e4       	ldi	r24, 0x4A	; 74
  f4:	91 e0       	ldi	r25, 0x01	; 1
  f6:	a0 df       	rcall	.-192    	; 0x38 <note>
		note(D4, 2);
  f8:	62 e0       	ldi	r22, 0x02	; 2
  fa:	70 e0       	ldi	r23, 0x00	; 0
  fc:	86 e2       	ldi	r24, 0x26	; 38
  fe:	91 e0       	ldi	r25, 0x01	; 1
 100:	9b df       	rcall	.-202    	; 0x38 <note>
		note(C4, 2);
 102:	62 e0       	ldi	r22, 0x02	; 2
 104:	70 e0       	ldi	r23, 0x00	; 0
 106:	86 e0       	ldi	r24, 0x06	; 6
 108:	91 e0       	ldi	r25, 0x01	; 1
 10a:	96 df       	rcall	.-212    	; 0x38 <note>
		note(C4, 2);
 10c:	62 e0       	ldi	r22, 0x02	; 2
 10e:	70 e0       	ldi	r23, 0x00	; 0
 110:	86 e0       	ldi	r24, 0x06	; 6
 112:	91 e0       	ldi	r25, 0x01	; 1
 114:	91 df       	rcall	.-222    	; 0x38 <note>
		note(D4, 2);
 116:	62 e0       	ldi	r22, 0x02	; 2
 118:	70 e0       	ldi	r23, 0x00	; 0
 11a:	86 e2       	ldi	r24, 0x26	; 38
 11c:	91 e0       	ldi	r25, 0x01	; 1
 11e:	8c df       	rcall	.-232    	; 0x38 <note>
		note(E4, 2);
 120:	62 e0       	ldi	r22, 0x02	; 2
 122:	70 e0       	ldi	r23, 0x00	; 0
 124:	8a e4       	ldi	r24, 0x4A	; 74
 126:	91 e0       	ldi	r25, 0x01	; 1
 128:	87 df       	rcall	.-242    	; 0x38 <note>
		note(E4, 4);
 12a:	64 e0       	ldi	r22, 0x04	; 4
 12c:	70 e0       	ldi	r23, 0x00	; 0
 12e:	8a e4       	ldi	r24, 0x4A	; 74
 130:	91 e0       	ldi	r25, 0x01	; 1
 132:	82 df       	rcall	.-252    	; 0x38 <note>
		//D4,D4,E4,E4,F4,G4,G4,F4,E4,D4,C4,C4,D4,E4,D4,C4
		note(D4, 1);
 134:	61 e0       	ldi	r22, 0x01	; 1
 136:	70 e0       	ldi	r23, 0x00	; 0
 138:	86 e2       	ldi	r24, 0x26	; 38
 13a:	91 e0       	ldi	r25, 0x01	; 1
 13c:	7d df       	rcall	.-262    	; 0x38 <note>
		note(D4, 4);
 13e:	64 e0       	ldi	r22, 0x04	; 4
 140:	70 e0       	ldi	r23, 0x00	; 0
 142:	86 e2       	ldi	r24, 0x26	; 38
 144:	91 e0       	ldi	r25, 0x01	; 1
 146:	78 df       	rcall	.-272    	; 0x38 <note>
		note(E4, 2);
 148:	62 e0       	ldi	r22, 0x02	; 2
 14a:	70 e0       	ldi	r23, 0x00	; 0
 14c:	8a e4       	ldi	r24, 0x4A	; 74
 14e:	91 e0       	ldi	r25, 0x01	; 1
 150:	73 df       	rcall	.-282    	; 0x38 <note>
		note(E4, 2);
 152:	62 e0       	ldi	r22, 0x02	; 2
 154:	70 e0       	ldi	r23, 0x00	; 0
 156:	8a e4       	ldi	r24, 0x4A	; 74
 158:	91 e0       	ldi	r25, 0x01	; 1
 15a:	6e df       	rcall	.-292    	; 0x38 <note>
		note(F4, 2);
 15c:	62 e0       	ldi	r22, 0x02	; 2
 15e:	70 e0       	ldi	r23, 0x00	; 0
 160:	8d e5       	ldi	r24, 0x5D	; 93
 162:	91 e0       	ldi	r25, 0x01	; 1
 164:	69 df       	rcall	.-302    	; 0x38 <note>
		note(G4, 2);
 166:	62 e0       	ldi	r22, 0x02	; 2
 168:	70 e0       	ldi	r23, 0x00	; 0
 16a:	88 e8       	ldi	r24, 0x88	; 136
 16c:	91 e0       	ldi	r25, 0x01	; 1
 16e:	64 df       	rcall	.-312    	; 0x38 <note>
		note(G4, 2);
 170:	62 e0       	ldi	r22, 0x02	; 2
 172:	70 e0       	ldi	r23, 0x00	; 0
 174:	88 e8       	ldi	r24, 0x88	; 136
 176:	91 e0       	ldi	r25, 0x01	; 1
 178:	5f df       	rcall	.-322    	; 0x38 <note>
		note(F4, 2);
 17a:	62 e0       	ldi	r22, 0x02	; 2
 17c:	70 e0       	ldi	r23, 0x00	; 0
 17e:	8d e5       	ldi	r24, 0x5D	; 93
 180:	91 e0       	ldi	r25, 0x01	; 1
 182:	5a df       	rcall	.-332    	; 0x38 <note>
		note(E4, 2);
 184:	62 e0       	ldi	r22, 0x02	; 2
 186:	70 e0       	ldi	r23, 0x00	; 0
 188:	8a e4       	ldi	r24, 0x4A	; 74
 18a:	91 e0       	ldi	r25, 0x01	; 1
 18c:	55 df       	rcall	.-342    	; 0x38 <note>
		note(D4, 2);
 18e:	62 e0       	ldi	r22, 0x02	; 2
 190:	70 e0       	ldi	r23, 0x00	; 0
 192:	86 e2       	ldi	r24, 0x26	; 38
 194:	91 e0       	ldi	r25, 0x01	; 1
 196:	50 df       	rcall	.-352    	; 0x38 <note>
		note(C4, 2);
 198:	62 e0       	ldi	r22, 0x02	; 2
 19a:	70 e0       	ldi	r23, 0x00	; 0
 19c:	86 e0       	ldi	r24, 0x06	; 6
 19e:	91 e0       	ldi	r25, 0x01	; 1
 1a0:	4b df       	rcall	.-362    	; 0x38 <note>
		note(C4, 2);
 1a2:	62 e0       	ldi	r22, 0x02	; 2
 1a4:	70 e0       	ldi	r23, 0x00	; 0
 1a6:	86 e0       	ldi	r24, 0x06	; 6
 1a8:	91 e0       	ldi	r25, 0x01	; 1
 1aa:	46 df       	rcall	.-372    	; 0x38 <note>
		note(D4, 2);
 1ac:	62 e0       	ldi	r22, 0x02	; 2
 1ae:	70 e0       	ldi	r23, 0x00	; 0
 1b0:	86 e2       	ldi	r24, 0x26	; 38
 1b2:	91 e0       	ldi	r25, 0x01	; 1
 1b4:	41 df       	rcall	.-382    	; 0x38 <note>
		note(E4, 2);
 1b6:	62 e0       	ldi	r22, 0x02	; 2
 1b8:	70 e0       	ldi	r23, 0x00	; 0
 1ba:	8a e4       	ldi	r24, 0x4A	; 74
 1bc:	91 e0       	ldi	r25, 0x01	; 1
 1be:	3c df       	rcall	.-392    	; 0x38 <note>
		note(D4, 4);
 1c0:	64 e0       	ldi	r22, 0x04	; 4
 1c2:	70 e0       	ldi	r23, 0x00	; 0
 1c4:	86 e2       	ldi	r24, 0x26	; 38
 1c6:	91 e0       	ldi	r25, 0x01	; 1
 1c8:	37 df       	rcall	.-402    	; 0x38 <note>
		note(C4, 1);
 1ca:	61 e0       	ldi	r22, 0x01	; 1
 1cc:	70 e0       	ldi	r23, 0x00	; 0
 1ce:	86 e0       	ldi	r24, 0x06	; 6
 1d0:	91 e0       	ldi	r25, 0x01	; 1
 1d2:	32 df       	rcall	.-412    	; 0x38 <note>
		//C4,D4,D4,E4,C4,D4,E4,F4,E4,C4,D4,E4,F4,E4,D4,C4
		note(C4, 4);
 1d4:	64 e0       	ldi	r22, 0x04	; 4
 1d6:	70 e0       	ldi	r23, 0x00	; 0
 1d8:	86 e0       	ldi	r24, 0x06	; 6
 1da:	91 e0       	ldi	r25, 0x01	; 1
 1dc:	2d df       	rcall	.-422    	; 0x38 <note>
		note(D4, 2);
 1de:	62 e0       	ldi	r22, 0x02	; 2
 1e0:	70 e0       	ldi	r23, 0x00	; 0
 1e2:	86 e2       	ldi	r24, 0x26	; 38
 1e4:	91 e0       	ldi	r25, 0x01	; 1
 1e6:	28 df       	rcall	.-432    	; 0x38 <note>
		note(D4, 2);
 1e8:	62 e0       	ldi	r22, 0x02	; 2
 1ea:	70 e0       	ldi	r23, 0x00	; 0
 1ec:	86 e2       	ldi	r24, 0x26	; 38
 1ee:	91 e0       	ldi	r25, 0x01	; 1
 1f0:	23 df       	rcall	.-442    	; 0x38 <note>
		note(E4, 2);
 1f2:	62 e0       	ldi	r22, 0x02	; 2
 1f4:	70 e0       	ldi	r23, 0x00	; 0
 1f6:	8a e4       	ldi	r24, 0x4A	; 74
 1f8:	91 e0       	ldi	r25, 0x01	; 1
 1fa:	1e df       	rcall	.-452    	; 0x38 <note>
		note(C4, 2);
 1fc:	62 e0       	ldi	r22, 0x02	; 2
 1fe:	70 e0       	ldi	r23, 0x00	; 0
 200:	86 e0       	ldi	r24, 0x06	; 6
 202:	91 e0       	ldi	r25, 0x01	; 1
 204:	19 df       	rcall	.-462    	; 0x38 <note>
		note(D4, 2);
 206:	62 e0       	ldi	r22, 0x02	; 2
 208:	70 e0       	ldi	r23, 0x00	; 0
 20a:	86 e2       	ldi	r24, 0x26	; 38
 20c:	91 e0       	ldi	r25, 0x01	; 1
 20e:	14 df       	rcall	.-472    	; 0x38 <note>
		note(E4, 1);
 210:	61 e0       	ldi	r22, 0x01	; 1
 212:	70 e0       	ldi	r23, 0x00	; 0
 214:	8a e4       	ldi	r24, 0x4A	; 74
 216:	91 e0       	ldi	r25, 0x01	; 1
 218:	0f df       	rcall	.-482    	; 0x38 <note>
		note(F4, 1);
 21a:	61 e0       	ldi	r22, 0x01	; 1
 21c:	70 e0       	ldi	r23, 0x00	; 0
 21e:	8d e5       	ldi	r24, 0x5D	; 93
 220:	91 e0       	ldi	r25, 0x01	; 1
 222:	0a df       	rcall	.-492    	; 0x38 <note>
		note(E4, 1);
 224:	61 e0       	ldi	r22, 0x01	; 1
 226:	70 e0       	ldi	r23, 0x00	; 0
 228:	8a e4       	ldi	r24, 0x4A	; 74
 22a:	91 e0       	ldi	r25, 0x01	; 1
 22c:	05 df       	rcall	.-502    	; 0x38 <note>
		note(C4, 2);
 22e:	62 e0       	ldi	r22, 0x02	; 2
 230:	70 e0       	ldi	r23, 0x00	; 0
 232:	86 e0       	ldi	r24, 0x06	; 6
 234:	91 e0       	ldi	r25, 0x01	; 1
 236:	00 df       	rcall	.-512    	; 0x38 <note>
		note(D4, 2);
 238:	62 e0       	ldi	r22, 0x02	; 2
 23a:	70 e0       	ldi	r23, 0x00	; 0
 23c:	86 e2       	ldi	r24, 0x26	; 38
 23e:	91 e0       	ldi	r25, 0x01	; 1
 240:	fb de       	rcall	.-522    	; 0x38 <note>
		note(E4, 1);
 242:	61 e0       	ldi	r22, 0x01	; 1
 244:	70 e0       	ldi	r23, 0x00	; 0
 246:	8a e4       	ldi	r24, 0x4A	; 74
 248:	91 e0       	ldi	r25, 0x01	; 1
 24a:	f6 de       	rcall	.-532    	; 0x38 <note>
		note(F4, 1);
 24c:	61 e0       	ldi	r22, 0x01	; 1
 24e:	70 e0       	ldi	r23, 0x00	; 0
 250:	8d e5       	ldi	r24, 0x5D	; 93
 252:	91 e0       	ldi	r25, 0x01	; 1
 254:	f1 de       	rcall	.-542    	; 0x38 <note>
		note(E4, 1);
 256:	61 e0       	ldi	r22, 0x01	; 1
 258:	70 e0       	ldi	r23, 0x00	; 0
 25a:	8a e4       	ldi	r24, 0x4A	; 74
 25c:	91 e0       	ldi	r25, 0x01	; 1
 25e:	ec de       	rcall	.-552    	; 0x38 <note>
		note(D4, 2);
 260:	62 e0       	ldi	r22, 0x02	; 2
 262:	70 e0       	ldi	r23, 0x00	; 0
 264:	86 e2       	ldi	r24, 0x26	; 38
 266:	91 e0       	ldi	r25, 0x01	; 1
 268:	e7 de       	rcall	.-562    	; 0x38 <note>
		note(C4, 2);
 26a:	62 e0       	ldi	r22, 0x02	; 2
 26c:	70 e0       	ldi	r23, 0x00	; 0
 26e:	86 e0       	ldi	r24, 0x06	; 6
 270:	91 e0       	ldi	r25, 0x01	; 1
 272:	e2 de       	rcall	.-572    	; 0x38 <note>
		//D4,G3,E4,E4,F4,G4,G4,F4,E4,D4,C4,C4,D4,E4,D4,C4,C4
		note(D4, 2);
 274:	62 e0       	ldi	r22, 0x02	; 2
 276:	70 e0       	ldi	r23, 0x00	; 0
 278:	86 e2       	ldi	r24, 0x26	; 38
 27a:	91 e0       	ldi	r25, 0x01	; 1
 27c:	dd de       	rcall	.-582    	; 0x38 <note>
		note(G3, 4);
 27e:	64 e0       	ldi	r22, 0x04	; 4
 280:	70 e0       	ldi	r23, 0x00	; 0
 282:	84 ec       	ldi	r24, 0xC4	; 196
 284:	90 e0       	ldi	r25, 0x00	; 0
 286:	d8 de       	rcall	.-592    	; 0x38 <note>
		note(E4, 2);
 288:	62 e0       	ldi	r22, 0x02	; 2
 28a:	70 e0       	ldi	r23, 0x00	; 0
 28c:	8a e4       	ldi	r24, 0x4A	; 74
 28e:	91 e0       	ldi	r25, 0x01	; 1
 290:	d3 de       	rcall	.-602    	; 0x38 <note>
		note(E4, 2);
 292:	62 e0       	ldi	r22, 0x02	; 2
 294:	70 e0       	ldi	r23, 0x00	; 0
 296:	8a e4       	ldi	r24, 0x4A	; 74
 298:	91 e0       	ldi	r25, 0x01	; 1
 29a:	ce de       	rcall	.-612    	; 0x38 <note>
		note(F4, 2);
 29c:	62 e0       	ldi	r22, 0x02	; 2
 29e:	70 e0       	ldi	r23, 0x00	; 0
 2a0:	8d e5       	ldi	r24, 0x5D	; 93
 2a2:	91 e0       	ldi	r25, 0x01	; 1
 2a4:	c9 de       	rcall	.-622    	; 0x38 <note>
		note(G4, 2);
 2a6:	62 e0       	ldi	r22, 0x02	; 2
 2a8:	70 e0       	ldi	r23, 0x00	; 0
 2aa:	88 e8       	ldi	r24, 0x88	; 136
 2ac:	91 e0       	ldi	r25, 0x01	; 1
 2ae:	c4 de       	rcall	.-632    	; 0x38 <note>
		note(G4, 2);
 2b0:	62 e0       	ldi	r22, 0x02	; 2
 2b2:	70 e0       	ldi	r23, 0x00	; 0
 2b4:	88 e8       	ldi	r24, 0x88	; 136
 2b6:	91 e0       	ldi	r25, 0x01	; 1
 2b8:	bf de       	rcall	.-642    	; 0x38 <note>
		note(F4, 2);
 2ba:	62 e0       	ldi	r22, 0x02	; 2
 2bc:	70 e0       	ldi	r23, 0x00	; 0
 2be:	8d e5       	ldi	r24, 0x5D	; 93
 2c0:	91 e0       	ldi	r25, 0x01	; 1
 2c2:	ba de       	rcall	.-652    	; 0x38 <note>
		note(E4, 2);
 2c4:	62 e0       	ldi	r22, 0x02	; 2
 2c6:	70 e0       	ldi	r23, 0x00	; 0
 2c8:	8a e4       	ldi	r24, 0x4A	; 74
 2ca:	91 e0       	ldi	r25, 0x01	; 1
 2cc:	b5 de       	rcall	.-662    	; 0x38 <note>
		note(D4, 2);
 2ce:	62 e0       	ldi	r22, 0x02	; 2
 2d0:	70 e0       	ldi	r23, 0x00	; 0
 2d2:	86 e2       	ldi	r24, 0x26	; 38
 2d4:	91 e0       	ldi	r25, 0x01	; 1
 2d6:	b0 de       	rcall	.-672    	; 0x38 <note>
		note(C4, 2);
 2d8:	62 e0       	ldi	r22, 0x02	; 2
 2da:	70 e0       	ldi	r23, 0x00	; 0
 2dc:	86 e0       	ldi	r24, 0x06	; 6
 2de:	91 e0       	ldi	r25, 0x01	; 1
 2e0:	ab de       	rcall	.-682    	; 0x38 <note>
		note(C4, 2);
 2e2:	62 e0       	ldi	r22, 0x02	; 2
 2e4:	70 e0       	ldi	r23, 0x00	; 0
 2e6:	86 e0       	ldi	r24, 0x06	; 6
 2e8:	91 e0       	ldi	r25, 0x01	; 1
 2ea:	a6 de       	rcall	.-692    	; 0x38 <note>
		note(D4, 2);
 2ec:	62 e0       	ldi	r22, 0x02	; 2
 2ee:	70 e0       	ldi	r23, 0x00	; 0
 2f0:	86 e2       	ldi	r24, 0x26	; 38
 2f2:	91 e0       	ldi	r25, 0x01	; 1
 2f4:	a1 de       	rcall	.-702    	; 0x38 <note>
		note(E4, 2);
 2f6:	62 e0       	ldi	r22, 0x02	; 2
 2f8:	70 e0       	ldi	r23, 0x00	; 0
 2fa:	8a e4       	ldi	r24, 0x4A	; 74
 2fc:	91 e0       	ldi	r25, 0x01	; 1
 2fe:	9c de       	rcall	.-712    	; 0x38 <note>
		note(D4, 4);
 300:	64 e0       	ldi	r22, 0x04	; 4
 302:	70 e0       	ldi	r23, 0x00	; 0
 304:	86 e2       	ldi	r24, 0x26	; 38
 306:	91 e0       	ldi	r25, 0x01	; 1
 308:	97 de       	rcall	.-722    	; 0x38 <note>
		note(C4, 1);
 30a:	61 e0       	ldi	r22, 0x01	; 1
 30c:	70 e0       	ldi	r23, 0x00	; 0
 30e:	86 e0       	ldi	r24, 0x06	; 6
 310:	91 e0       	ldi	r25, 0x01	; 1
 312:	92 de       	rcall	.-732    	; 0x38 <note>
		note(C4, 4);
 314:	64 e0       	ldi	r22, 0x04	; 4
 316:	70 e0       	ldi	r23, 0x00	; 0
 318:	86 e0       	ldi	r24, 0x06	; 6
 31a:	91 e0       	ldi	r25, 0x01	; 1
 31c:	8d de       	rcall	.-742    	; 0x38 <note>
 31e:	ff cf       	rjmp	.-2      	; 0x31e <__stack+0x23f>

00000320 <__divmodsi4>:
 320:	05 2e       	mov	r0, r21
 322:	97 fb       	bst	r25, 7
 324:	16 f4       	brtc	.+4      	; 0x32a <__divmodsi4+0xa>
 326:	00 94       	com	r0
 328:	0f d0       	rcall	.+30     	; 0x348 <__negsi2>
 32a:	57 fd       	sbrc	r21, 7
 32c:	05 d0       	rcall	.+10     	; 0x338 <__divmodsi4_neg2>
 32e:	14 d0       	rcall	.+40     	; 0x358 <__udivmodsi4>
 330:	07 fc       	sbrc	r0, 7
 332:	02 d0       	rcall	.+4      	; 0x338 <__divmodsi4_neg2>
 334:	46 f4       	brtc	.+16     	; 0x346 <__divmodsi4_exit>
 336:	08 c0       	rjmp	.+16     	; 0x348 <__negsi2>

00000338 <__divmodsi4_neg2>:
 338:	50 95       	com	r21
 33a:	40 95       	com	r20
 33c:	30 95       	com	r19
 33e:	21 95       	neg	r18
 340:	3f 4f       	sbci	r19, 0xFF	; 255
 342:	4f 4f       	sbci	r20, 0xFF	; 255
 344:	5f 4f       	sbci	r21, 0xFF	; 255

00000346 <__divmodsi4_exit>:
 346:	08 95       	ret

00000348 <__negsi2>:
 348:	90 95       	com	r25
 34a:	80 95       	com	r24
 34c:	70 95       	com	r23
 34e:	61 95       	neg	r22
 350:	7f 4f       	sbci	r23, 0xFF	; 255
 352:	8f 4f       	sbci	r24, 0xFF	; 255
 354:	9f 4f       	sbci	r25, 0xFF	; 255
 356:	08 95       	ret

00000358 <__udivmodsi4>:
 358:	a1 e2       	ldi	r26, 0x21	; 33
 35a:	1a 2e       	mov	r1, r26
 35c:	aa 1b       	sub	r26, r26
 35e:	bb 1b       	sub	r27, r27
 360:	fd 01       	movw	r30, r26
 362:	0d c0       	rjmp	.+26     	; 0x37e <__udivmodsi4_ep>

00000364 <__udivmodsi4_loop>:
 364:	aa 1f       	adc	r26, r26
 366:	bb 1f       	adc	r27, r27
 368:	ee 1f       	adc	r30, r30
 36a:	ff 1f       	adc	r31, r31
 36c:	a2 17       	cp	r26, r18
 36e:	b3 07       	cpc	r27, r19
 370:	e4 07       	cpc	r30, r20
 372:	f5 07       	cpc	r31, r21
 374:	20 f0       	brcs	.+8      	; 0x37e <__udivmodsi4_ep>
 376:	a2 1b       	sub	r26, r18
 378:	b3 0b       	sbc	r27, r19
 37a:	e4 0b       	sbc	r30, r20
 37c:	f5 0b       	sbc	r31, r21

0000037e <__udivmodsi4_ep>:
 37e:	66 1f       	adc	r22, r22
 380:	77 1f       	adc	r23, r23
 382:	88 1f       	adc	r24, r24
 384:	99 1f       	adc	r25, r25
 386:	1a 94       	dec	r1
 388:	69 f7       	brne	.-38     	; 0x364 <__udivmodsi4_loop>
 38a:	60 95       	com	r22
 38c:	70 95       	com	r23
 38e:	80 95       	com	r24
 390:	90 95       	com	r25
 392:	9b 01       	movw	r18, r22
 394:	ac 01       	movw	r20, r24
 396:	bd 01       	movw	r22, r26
 398:	cf 01       	movw	r24, r30
 39a:	08 95       	ret

0000039c <_exit>:
 39c:	f8 94       	cli

0000039e <__stop_program>:
 39e:	ff cf       	rjmp	.-2      	; 0x39e <__stop_program>
