
Practice_Parallel_Programming_Test.elf:     file format elf32-avr

Sections:
Idx Name          Size      VMA       LMA       File off  Algn
  0 .data         00000000  00800100  0000032a  000003be  2**0
                  CONTENTS, ALLOC, LOAD, DATA
  1 .text         0000032a  00000000  00000000  00000094  2**1
                  CONTENTS, ALLOC, LOAD, READONLY, CODE
  2 .bss          00000001  00800100  00800100  000003be  2**0
                  ALLOC
  3 .comment      00000030  00000000  00000000  000003be  2**0
                  CONTENTS, READONLY
  4 .debug_aranges 00000080  00000000  00000000  000003ee  2**0
                  CONTENTS, READONLY, DEBUGGING
  5 .debug_info   00000a19  00000000  00000000  0000046e  2**0
                  CONTENTS, READONLY, DEBUGGING
  6 .debug_abbrev 000001f8  00000000  00000000  00000e87  2**0
                  CONTENTS, READONLY, DEBUGGING
  7 .debug_line   000003f0  00000000  00000000  0000107f  2**0
                  CONTENTS, READONLY, DEBUGGING
  8 .debug_frame  000000fc  00000000  00000000  00001470  2**2
                  CONTENTS, READONLY, DEBUGGING
  9 .debug_str    000002e9  00000000  00000000  0000156c  2**0
                  CONTENTS, READONLY, DEBUGGING
 10 .debug_loc    0000015d  00000000  00000000  00001855  2**0
                  CONTENTS, READONLY, DEBUGGING
 11 .debug_ranges 00000070  00000000  00000000  000019b2  2**0
                  CONTENTS, READONLY, DEBUGGING

Disassembly of section .text:

00000000 <__vectors>:
   0:	0c 94 3e 00 	jmp	0x7c	; 0x7c <__ctors_end>
   4:	0c 94 50 00 	jmp	0xa0	; 0xa0 <__bad_interrupt>
   8:	0c 94 50 00 	jmp	0xa0	; 0xa0 <__bad_interrupt>
   c:	0c 94 50 00 	jmp	0xa0	; 0xa0 <__bad_interrupt>
  10:	0c 94 50 00 	jmp	0xa0	; 0xa0 <__bad_interrupt>
  14:	0c 94 50 00 	jmp	0xa0	; 0xa0 <__bad_interrupt>
  18:	0c 94 50 00 	jmp	0xa0	; 0xa0 <__bad_interrupt>
  1c:	0c 94 50 00 	jmp	0xa0	; 0xa0 <__bad_interrupt>
  20:	0c 94 50 00 	jmp	0xa0	; 0xa0 <__bad_interrupt>
  24:	0c 94 50 00 	jmp	0xa0	; 0xa0 <__bad_interrupt>
  28:	0c 94 50 00 	jmp	0xa0	; 0xa0 <__bad_interrupt>
  2c:	0c 94 50 00 	jmp	0xa0	; 0xa0 <__bad_interrupt>
  30:	0c 94 50 00 	jmp	0xa0	; 0xa0 <__bad_interrupt>
  34:	0c 94 50 00 	jmp	0xa0	; 0xa0 <__bad_interrupt>
  38:	0c 94 50 00 	jmp	0xa0	; 0xa0 <__bad_interrupt>
  3c:	0c 94 50 00 	jmp	0xa0	; 0xa0 <__bad_interrupt>
  40:	0c 94 50 00 	jmp	0xa0	; 0xa0 <__bad_interrupt>
  44:	0c 94 50 00 	jmp	0xa0	; 0xa0 <__bad_interrupt>
  48:	0c 94 50 00 	jmp	0xa0	; 0xa0 <__bad_interrupt>
  4c:	0c 94 50 00 	jmp	0xa0	; 0xa0 <__bad_interrupt>
  50:	0c 94 50 00 	jmp	0xa0	; 0xa0 <__bad_interrupt>
  54:	0c 94 50 00 	jmp	0xa0	; 0xa0 <__bad_interrupt>
  58:	0c 94 50 00 	jmp	0xa0	; 0xa0 <__bad_interrupt>
  5c:	0c 94 50 00 	jmp	0xa0	; 0xa0 <__bad_interrupt>
  60:	0c 94 50 00 	jmp	0xa0	; 0xa0 <__bad_interrupt>
  64:	0c 94 50 00 	jmp	0xa0	; 0xa0 <__bad_interrupt>
  68:	0c 94 50 00 	jmp	0xa0	; 0xa0 <__bad_interrupt>
  6c:	0c 94 50 00 	jmp	0xa0	; 0xa0 <__bad_interrupt>
  70:	0c 94 50 00 	jmp	0xa0	; 0xa0 <__bad_interrupt>
  74:	0c 94 50 00 	jmp	0xa0	; 0xa0 <__bad_interrupt>
  78:	0c 94 50 00 	jmp	0xa0	; 0xa0 <__bad_interrupt>

0000007c <__ctors_end>:
  7c:	11 24       	eor	r1, r1
  7e:	1f be       	out	0x3f, r1	; 63
  80:	cf ef       	ldi	r28, 0xFF	; 255
  82:	d8 e0       	ldi	r29, 0x08	; 8
  84:	de bf       	out	0x3e, r29	; 62
  86:	cd bf       	out	0x3d, r28	; 61

00000088 <__do_clear_bss>:
  88:	21 e0       	ldi	r18, 0x01	; 1
  8a:	a0 e0       	ldi	r26, 0x00	; 0
  8c:	b1 e0       	ldi	r27, 0x01	; 1
  8e:	01 c0       	rjmp	.+2      	; 0x92 <.do_clear_bss_start>

00000090 <.do_clear_bss_loop>:
  90:	1d 92       	st	X+, r1

00000092 <.do_clear_bss_start>:
  92:	a1 30       	cpi	r26, 0x01	; 1
  94:	b2 07       	cpc	r27, r18
  96:	e1 f7       	brne	.-8      	; 0x90 <.do_clear_bss_loop>
  98:	0e 94 7c 01 	call	0x2f8	; 0x2f8 <main>
  9c:	0c 94 93 01 	jmp	0x326	; 0x326 <_exit>

000000a0 <__bad_interrupt>:
  a0:	0c 94 00 00 	jmp	0	; 0x0 <__vectors>

000000a4 <SPI_Init>:
}

void SPI_Init(void)
{
	// Set MOSI ,SCK, and SS as output, others as input
	SPI_DDR = (1<<MOSI)|(1<<SCK)|(1<<SS);
  a4:	80 eb       	ldi	r24, 0xB0	; 176
  a6:	84 b9       	out	0x04, r24	; 4
	// CS pin is not active
	Switching_Circuitry_CS_PORT |= (1<<Switching_Circuitry_SPI_CS);
  a8:	5c 9a       	sbi	0x0b, 4	; 11
	// Enable SPI, Master Mode 0, set the clock rate fck/4
	SPCR0 = (1<<SPE0)|(1<<MSTR0);
  aa:	80 e5       	ldi	r24, 0x50	; 80
  ac:	8c bd       	out	0x2c, r24	; 44
  ae:	08 95       	ret

000000b0 <SPI_Write>:
}

void SPI_Write(unsigned char SPI_Data)
{
	// Start Write transmission
	SPDR0 = SPI_Data;
  b0:	8e bd       	out	0x2e, r24	; 46
	// Wait for transmission complete
	while(!(SPSR0 & (1<<SPIF0)));
  b2:	0d b4       	in	r0, 0x2d	; 45
  b4:	07 fe       	sbrs	r0, 7
  b6:	fd cf       	rjmp	.-6      	; 0xb2 <SPI_Write+0x2>
}
  b8:	08 95       	ret

000000ba <EnterParallelProgrammingMode>:



void EnterParallelProgrammingMode(void)
{	
	ControlPort &= ~(1<<XA1_BS2 | 1<<XA0 | 1<<BS1_PAGEL | 1<<WR);
  ba:	88 b1       	in	r24, 0x08	; 8
  bc:	87 78       	andi	r24, 0x87	; 135
  be:	88 b9       	out	0x08, r24	; 8
	
	Switching_Circuitry_CS_PORT &= ~(1<<Switching_Circuitry_SPI_CS);
  c0:	5c 98       	cbi	0x0b, 4	; 11
	SPI_Write(0x00); //Pull Downs
  c2:	80 e0       	ldi	r24, 0x00	; 0
  c4:	0e 94 58 00 	call	0xb0	; 0xb0 <SPI_Write>
	SPI_Write(0x00);
  c8:	80 e0       	ldi	r24, 0x00	; 0
  ca:	0e 94 58 00 	call	0xb0	; 0xb0 <SPI_Write>
	SPI_Write(0x00);
  ce:	80 e0       	ldi	r24, 0x00	; 0
  d0:	0e 94 58 00 	call	0xb0	; 0xb0 <SPI_Write>
	SPI_Write(0x00);
  d4:	80 e0       	ldi	r24, 0x00	; 0
  d6:	0e 94 58 00 	call	0xb0	; 0xb0 <SPI_Write>
	SPI_Write(0x00);
  da:	80 e0       	ldi	r24, 0x00	; 0
  dc:	0e 94 58 00 	call	0xb0	; 0xb0 <SPI_Write>
	
	SPI_Write(0x00); //GND
  e0:	80 e0       	ldi	r24, 0x00	; 0
  e2:	0e 94 58 00 	call	0xb0	; 0xb0 <SPI_Write>
	SPI_Write(0x00);
  e6:	80 e0       	ldi	r24, 0x00	; 0
  e8:	0e 94 58 00 	call	0xb0	; 0xb0 <SPI_Write>
	SPI_Write(0x08);
  ec:	88 e0       	ldi	r24, 0x08	; 8
  ee:	0e 94 58 00 	call	0xb0	; 0xb0 <SPI_Write>
	SPI_Write(0x00);
  f2:	80 e0       	ldi	r24, 0x00	; 0
  f4:	0e 94 58 00 	call	0xb0	; 0xb0 <SPI_Write>
	SPI_Write(0x00);
  f8:	80 e0       	ldi	r24, 0x00	; 0
  fa:	0e 94 58 00 	call	0xb0	; 0xb0 <SPI_Write>
	
	SPI_Write(0x00); //Pull Ups
  fe:	80 e0       	ldi	r24, 0x00	; 0
 100:	0e 94 58 00 	call	0xb0	; 0xb0 <SPI_Write>
	SPI_Write(0x00);
 104:	80 e0       	ldi	r24, 0x00	; 0
 106:	0e 94 58 00 	call	0xb0	; 0xb0 <SPI_Write>
	SPI_Write(0x00);
 10a:	80 e0       	ldi	r24, 0x00	; 0
 10c:	0e 94 58 00 	call	0xb0	; 0xb0 <SPI_Write>
	SPI_Write(0x00);
 110:	80 e0       	ldi	r24, 0x00	; 0
 112:	0e 94 58 00 	call	0xb0	; 0xb0 <SPI_Write>
	SPI_Write(0x00);
 116:	80 e0       	ldi	r24, 0x00	; 0
 118:	0e 94 58 00 	call	0xb0	; 0xb0 <SPI_Write>
	
	SPI_Write(0x00); //VCC
 11c:	80 e0       	ldi	r24, 0x00	; 0
 11e:	0e 94 58 00 	call	0xb0	; 0xb0 <SPI_Write>
	SPI_Write(0x20);
 122:	80 e2       	ldi	r24, 0x20	; 32
 124:	0e 94 58 00 	call	0xb0	; 0xb0 <SPI_Write>
	SPI_Write(0x00);
 128:	80 e0       	ldi	r24, 0x00	; 0
 12a:	0e 94 58 00 	call	0xb0	; 0xb0 <SPI_Write>
	SPI_Write(0x00);
 12e:	80 e0       	ldi	r24, 0x00	; 0
 130:	0e 94 58 00 	call	0xb0	; 0xb0 <SPI_Write>
	SPI_Write(0x00);
 134:	80 e0       	ldi	r24, 0x00	; 0
 136:	0e 94 58 00 	call	0xb0	; 0xb0 <SPI_Write>
	
	SPI_Write(0x00); //VPP
 13a:	80 e0       	ldi	r24, 0x00	; 0
 13c:	0e 94 58 00 	call	0xb0	; 0xb0 <SPI_Write>
	SPI_Write(0x00);
 140:	80 e0       	ldi	r24, 0x00	; 0
 142:	0e 94 58 00 	call	0xb0	; 0xb0 <SPI_Write>
	SPI_Write(0x00);
 146:	80 e0       	ldi	r24, 0x00	; 0
 148:	0e 94 58 00 	call	0xb0	; 0xb0 <SPI_Write>
	SPI_Write(0x00);
 14c:	80 e0       	ldi	r24, 0x00	; 0
 14e:	0e 94 58 00 	call	0xb0	; 0xb0 <SPI_Write>
	SPI_Write(0x00);
 152:	80 e0       	ldi	r24, 0x00	; 0
 154:	0e 94 58 00 	call	0xb0	; 0xb0 <SPI_Write>
	Switching_Circuitry_CS_PORT |= (1<<Switching_Circuitry_SPI_CS);
 158:	5c 9a       	sbi	0x0b, 4	; 11
	
	//_delay_us(25);
	//PORTD |= 1<<2;
	
	 Switching_Circuitry_CS_PORT &= ~(1<<Switching_Circuitry_SPI_CS);
 15a:	5c 98       	cbi	0x0b, 4	; 11
	SPI_Write(0x00); //Pull Downs
 15c:	80 e0       	ldi	r24, 0x00	; 0
 15e:	0e 94 58 00 	call	0xb0	; 0xb0 <SPI_Write>
	SPI_Write(0x00);
 162:	80 e0       	ldi	r24, 0x00	; 0
 164:	0e 94 58 00 	call	0xb0	; 0xb0 <SPI_Write>
	SPI_Write(0x00);
 168:	80 e0       	ldi	r24, 0x00	; 0
 16a:	0e 94 58 00 	call	0xb0	; 0xb0 <SPI_Write>
	SPI_Write(0x00);
 16e:	80 e0       	ldi	r24, 0x00	; 0
 170:	0e 94 58 00 	call	0xb0	; 0xb0 <SPI_Write>
	SPI_Write(0x00);
 174:	80 e0       	ldi	r24, 0x00	; 0
 176:	0e 94 58 00 	call	0xb0	; 0xb0 <SPI_Write>
	
	SPI_Write(0x00); //GND
 17a:	80 e0       	ldi	r24, 0x00	; 0
 17c:	0e 94 58 00 	call	0xb0	; 0xb0 <SPI_Write>
	SPI_Write(0x00);
 180:	80 e0       	ldi	r24, 0x00	; 0
 182:	0e 94 58 00 	call	0xb0	; 0xb0 <SPI_Write>
	SPI_Write(0x08);
 186:	88 e0       	ldi	r24, 0x08	; 8
 188:	0e 94 58 00 	call	0xb0	; 0xb0 <SPI_Write>
	SPI_Write(0x00);
 18c:	80 e0       	ldi	r24, 0x00	; 0
 18e:	0e 94 58 00 	call	0xb0	; 0xb0 <SPI_Write>
	SPI_Write(0x00);
 192:	80 e0       	ldi	r24, 0x00	; 0
 194:	0e 94 58 00 	call	0xb0	; 0xb0 <SPI_Write>
	
	SPI_Write(0x00); //Pull Ups
 198:	80 e0       	ldi	r24, 0x00	; 0
 19a:	0e 94 58 00 	call	0xb0	; 0xb0 <SPI_Write>
	SPI_Write(0x00);
 19e:	80 e0       	ldi	r24, 0x00	; 0
 1a0:	0e 94 58 00 	call	0xb0	; 0xb0 <SPI_Write>
	SPI_Write(0x00);
 1a4:	80 e0       	ldi	r24, 0x00	; 0
 1a6:	0e 94 58 00 	call	0xb0	; 0xb0 <SPI_Write>
	SPI_Write(0x00);
 1aa:	80 e0       	ldi	r24, 0x00	; 0
 1ac:	0e 94 58 00 	call	0xb0	; 0xb0 <SPI_Write>
	SPI_Write(0x00);
 1b0:	80 e0       	ldi	r24, 0x00	; 0
 1b2:	0e 94 58 00 	call	0xb0	; 0xb0 <SPI_Write>
	
	SPI_Write(0x00); //VCC
 1b6:	80 e0       	ldi	r24, 0x00	; 0
 1b8:	0e 94 58 00 	call	0xb0	; 0xb0 <SPI_Write>
	SPI_Write(0x20);
 1bc:	80 e2       	ldi	r24, 0x20	; 32
 1be:	0e 94 58 00 	call	0xb0	; 0xb0 <SPI_Write>
	SPI_Write(0x00);
 1c2:	80 e0       	ldi	r24, 0x00	; 0
 1c4:	0e 94 58 00 	call	0xb0	; 0xb0 <SPI_Write>
	SPI_Write(0x00);
 1c8:	80 e0       	ldi	r24, 0x00	; 0
 1ca:	0e 94 58 00 	call	0xb0	; 0xb0 <SPI_Write>
	SPI_Write(0x00);
 1ce:	80 e0       	ldi	r24, 0x00	; 0
 1d0:	0e 94 58 00 	call	0xb0	; 0xb0 <SPI_Write>
	
	SPI_Write(0x00); //VPP
 1d4:	80 e0       	ldi	r24, 0x00	; 0
 1d6:	0e 94 58 00 	call	0xb0	; 0xb0 <SPI_Write>
	SPI_Write(0x00);
 1da:	80 e0       	ldi	r24, 0x00	; 0
 1dc:	0e 94 58 00 	call	0xb0	; 0xb0 <SPI_Write>
	SPI_Write(0x00);
 1e0:	80 e0       	ldi	r24, 0x00	; 0
 1e2:	0e 94 58 00 	call	0xb0	; 0xb0 <SPI_Write>
	SPI_Write(0x04);
 1e6:	84 e0       	ldi	r24, 0x04	; 4
 1e8:	0e 94 58 00 	call	0xb0	; 0xb0 <SPI_Write>
	SPI_Write(0x00);
 1ec:	80 e0       	ldi	r24, 0x00	; 0
 1ee:	0e 94 58 00 	call	0xb0	; 0xb0 <SPI_Write>
	 Switching_Circuitry_CS_PORT |= (1<<Switching_Circuitry_SPI_CS);
 1f2:	5c 9a       	sbi	0x0b, 4	; 11
	#else
		//round up by default
		__ticks_dc = (uint32_t)(ceil(fabs(__tmp)));
	#endif

	__builtin_avr_delay_cycles(__ticks_dc);
 1f4:	88 e2       	ldi	r24, 0x28	; 40
 1f6:	8a 95       	dec	r24
 1f8:	f1 f7       	brne	.-4      	; 0x1f6 <EnterParallelProgrammingMode+0x13c>
	_delay_us(15);
	ControlPort |= (1<<WR | 1<<OE);
 1fa:	88 b1       	in	r24, 0x08	; 8
 1fc:	8c 60       	ori	r24, 0x0C	; 12
 1fe:	88 b9       	out	0x08, r24	; 8
 200:	8b e6       	ldi	r24, 0x6B	; 107
 202:	92 e0       	ldi	r25, 0x02	; 2
 204:	01 97       	sbiw	r24, 0x01	; 1
 206:	f1 f7       	brne	.-4      	; 0x204 <EnterParallelProgrammingMode+0x14a>
 208:	00 c0       	rjmp	.+0      	; 0x20a <EnterParallelProgrammingMode+0x150>
 20a:	00 00       	nop
 20c:	08 95       	ret

0000020e <USB_UART_Initialization>:
	while(!(SPSR0 & (1<<SPIF0)));
}

void USB_UART_Initialization(void)
{
	DDRD |= 1<<1;
 20e:	51 9a       	sbi	0x0a, 1	; 10
	DDRD &= ~(1<<0);
 210:	50 98       	cbi	0x0a, 0	; 10
	PORTD |= 1<<0;
 212:	58 9a       	sbi	0x0b, 0	; 11
	UCSR0C = (1<<UCSZ01 | 1<<UCSZ00);	//8 bit data
 214:	86 e0       	ldi	r24, 0x06	; 6
 216:	80 93 c2 00 	sts	0x00C2, r24
	UBRR0H = 0;
 21a:	10 92 c5 00 	sts	0x00C5, r1
	UBRR0L = 25;						//2400 Baud
 21e:	89 e1       	ldi	r24, 0x19	; 25
 220:	80 93 c4 00 	sts	0x00C4, r24
	UCSR0B |= 1<<TXEN0; //Enable Transmit
 224:	e1 ec       	ldi	r30, 0xC1	; 193
 226:	f0 e0       	ldi	r31, 0x00	; 0
 228:	80 81       	ld	r24, Z
 22a:	88 60       	ori	r24, 0x08	; 8
 22c:	80 83       	st	Z, r24
	UCSR0B |= 1<<RXEN0; //Enable Receive
 22e:	80 81       	ld	r24, Z
 230:	80 61       	ori	r24, 0x10	; 16
 232:	80 83       	st	Z, r24
 234:	08 95       	ret

00000236 <USB_UART_Out>:
	//UCSR0B |= 1<<RXCIE0;	//Interrupt enable
}

void USB_UART_Out(unsigned char TransmissionValue)
{
	while(!(UCSR0A & (1<<UDRE0))); //buffer empty and ready to transmit
 236:	e0 ec       	ldi	r30, 0xC0	; 192
 238:	f0 e0       	ldi	r31, 0x00	; 0
 23a:	90 81       	ld	r25, Z
 23c:	95 ff       	sbrs	r25, 5
 23e:	fd cf       	rjmp	.-6      	; 0x23a <USB_UART_Out+0x4>
	UDR0 = TransmissionValue; //start transmitting value
 240:	80 93 c6 00 	sts	0x00C6, r24
	while(!(UCSR0A & (1<<TXC0))); //wait for transmit to complete
 244:	e0 ec       	ldi	r30, 0xC0	; 192
 246:	f0 e0       	ldi	r31, 0x00	; 0
 248:	80 81       	ld	r24, Z
 24a:	86 ff       	sbrs	r24, 6
 24c:	fd cf       	rjmp	.-6      	; 0x248 <USB_UART_Out+0x12>
	UCSR0A |= 1<<TXC0; //clear transmit complete flag
 24e:	e0 ec       	ldi	r30, 0xC0	; 192
 250:	f0 e0       	ldi	r31, 0x00	; 0
 252:	80 81       	ld	r24, Z
 254:	80 64       	ori	r24, 0x40	; 64
 256:	80 83       	st	Z, r24
 258:	08 95       	ret

0000025a <ReadSignatureBytes>:
}

void ReadSignatureBytes(void)
{
	//A: Load Command "Read Signature Bytes"
	ControlPort |= 1<<XA1_BS2;
 25a:	46 9a       	sbi	0x08, 6	; 8
	ControlPort &= ~(1<<XA0);
 25c:	45 98       	cbi	0x08, 5	; 8
	ControlPort &= ~(1<<BS1_PAGEL);
 25e:	44 98       	cbi	0x08, 4	; 8
	DATAOut = 0x08;
 260:	88 e0       	ldi	r24, 0x08	; 8
 262:	82 b9       	out	0x02, r24	; 2
	ControlPort |= 1<<XTAL1;
 264:	40 9a       	sbi	0x08, 0	; 8
	ControlPort &= ~(1<<XTAL1);
 266:	40 98       	cbi	0x08, 0	; 8
	
	//B: Load Address Low Byte
	ControlPort &= ~(1<<XA1_BS2);
 268:	46 98       	cbi	0x08, 6	; 8
	ControlPort &= ~(1<<XA0);
 26a:	45 98       	cbi	0x08, 5	; 8
	ControlPort &= ~(1<<BS1_PAGEL);
 26c:	44 98       	cbi	0x08, 4	; 8
	DATAOut = 0x00;
 26e:	12 b8       	out	0x02, r1	; 2
	ControlPort |= 1<<XTAL1;
 270:	40 9a       	sbi	0x08, 0	; 8
	ControlPort &= ~(1<<XTAL1);
 272:	40 98       	cbi	0x08, 0	; 8
	
	//Read data
	DATADirection = 0;
 274:	11 b8       	out	0x01, r1	; 1
	ControlPort &= ~(1<<OE);
 276:	42 98       	cbi	0x08, 2	; 8
	ControlPort &= ~(1<<BS1_PAGEL);
 278:	44 98       	cbi	0x08, 4	; 8
 27a:	8f ec       	ldi	r24, 0xCF	; 207
 27c:	97 e0       	ldi	r25, 0x07	; 7
 27e:	01 97       	sbiw	r24, 0x01	; 1
 280:	f1 f7       	brne	.-4      	; 0x27e <ReadSignatureBytes+0x24>
 282:	00 c0       	rjmp	.+0      	; 0x284 <ReadSignatureBytes+0x2a>
 284:	00 00       	nop
	_delay_us(1000);
	DataValueIn = DATAIn;
 286:	80 b1       	in	r24, 0x00	; 0
 288:	80 93 00 01 	sts	0x0100, r24
	USB_UART_Out(DataValueIn);
 28c:	0e 94 1b 01 	call	0x236	; 0x236 <USB_UART_Out>
	//HexToASCII(DataValueIn);
	ControlPort |= 1<<OE;
 290:	42 9a       	sbi	0x08, 2	; 8
	DATADirection = 0xFF;
 292:	8f ef       	ldi	r24, 0xFF	; 255
 294:	81 b9       	out	0x01, r24	; 1
	
	//Load Address Low Byte
	ControlPort &= ~(1<<XA1_BS2);
 296:	46 98       	cbi	0x08, 6	; 8
	ControlPort &= ~(1<<XA0);
 298:	45 98       	cbi	0x08, 5	; 8
	ControlPort &= ~(1<<BS1_PAGEL);
 29a:	44 98       	cbi	0x08, 4	; 8
	DATAOut = 0x01;
 29c:	81 e0       	ldi	r24, 0x01	; 1
 29e:	82 b9       	out	0x02, r24	; 2
	ControlPort |= 1<<XTAL1;
 2a0:	40 9a       	sbi	0x08, 0	; 8
	ControlPort &= ~(1<<XTAL1);
 2a2:	40 98       	cbi	0x08, 0	; 8
	
	//Read data
	DATADirection = 0;
 2a4:	11 b8       	out	0x01, r1	; 1
	ControlPort &= ~(1<<OE);
 2a6:	42 98       	cbi	0x08, 2	; 8
	ControlPort &= ~(1<<BS1_PAGEL);
 2a8:	44 98       	cbi	0x08, 4	; 8
 2aa:	8f ec       	ldi	r24, 0xCF	; 207
 2ac:	97 e0       	ldi	r25, 0x07	; 7
 2ae:	01 97       	sbiw	r24, 0x01	; 1
 2b0:	f1 f7       	brne	.-4      	; 0x2ae <ReadSignatureBytes+0x54>
 2b2:	00 c0       	rjmp	.+0      	; 0x2b4 <ReadSignatureBytes+0x5a>
 2b4:	00 00       	nop
	_delay_us(1000);
	DataValueIn = DATAIn;
 2b6:	80 b1       	in	r24, 0x00	; 0
 2b8:	80 93 00 01 	sts	0x0100, r24
	USB_UART_Out(DataValueIn);
 2bc:	0e 94 1b 01 	call	0x236	; 0x236 <USB_UART_Out>
	//HexToASCII(DataValueIn);
	ControlPort |= 1<<OE;
 2c0:	42 9a       	sbi	0x08, 2	; 8
	DATADirection = 0xFF;
 2c2:	8f ef       	ldi	r24, 0xFF	; 255
 2c4:	81 b9       	out	0x01, r24	; 1
	
	//Load Address Low Byte
	ControlPort &= ~(1<<XA1_BS2);
 2c6:	46 98       	cbi	0x08, 6	; 8
	ControlPort &= ~(1<<XA0);
 2c8:	45 98       	cbi	0x08, 5	; 8
	ControlPort &= ~(1<<BS1_PAGEL);
 2ca:	44 98       	cbi	0x08, 4	; 8
	DATAOut = 0x02;
 2cc:	82 e0       	ldi	r24, 0x02	; 2
 2ce:	82 b9       	out	0x02, r24	; 2
	ControlPort |= 1<<XTAL1;
 2d0:	40 9a       	sbi	0x08, 0	; 8
	ControlPort &= ~(1<<XTAL1);
 2d2:	40 98       	cbi	0x08, 0	; 8
	
	//Read data
	DATADirection = 0;
 2d4:	11 b8       	out	0x01, r1	; 1
	ControlPort &= ~(1<<OE);
 2d6:	42 98       	cbi	0x08, 2	; 8
	ControlPort &= ~(1<<BS1_PAGEL);
 2d8:	44 98       	cbi	0x08, 4	; 8
 2da:	8f ec       	ldi	r24, 0xCF	; 207
 2dc:	97 e0       	ldi	r25, 0x07	; 7
 2de:	01 97       	sbiw	r24, 0x01	; 1
 2e0:	f1 f7       	brne	.-4      	; 0x2de <ReadSignatureBytes+0x84>
 2e2:	00 c0       	rjmp	.+0      	; 0x2e4 <ReadSignatureBytes+0x8a>
 2e4:	00 00       	nop
	_delay_us(1000);
	DataValueIn = DATAIn;
 2e6:	80 b1       	in	r24, 0x00	; 0
 2e8:	80 93 00 01 	sts	0x0100, r24
	USB_UART_Out(DataValueIn);
 2ec:	0e 94 1b 01 	call	0x236	; 0x236 <USB_UART_Out>
	//HexToASCII(DataValueIn);
	ControlPort |= 1<<OE;
 2f0:	42 9a       	sbi	0x08, 2	; 8
	DATADirection = 0xFF;
 2f2:	8f ef       	ldi	r24, 0xFF	; 255
 2f4:	81 b9       	out	0x01, r24	; 1
 2f6:	08 95       	ret

000002f8 <main>:

unsigned char DataValueIn = 0;

int main(void)
{
	USB_UART_Initialization();
 2f8:	0e 94 07 01 	call	0x20e	; 0x20e <USB_UART_Initialization>
	
	Shift_Reg_Cntrl_DDR |= (1<<SROE | 1<<Switching_Circuitry_SPI_CS | 1<<SReset | 1<<6);
 2fc:	8a b1       	in	r24, 0x0a	; 10
 2fe:	88 67       	ori	r24, 0x78	; 120
 300:	8a b9       	out	0x0a, r24	; 10
	
	DDRD |= 1<<2;
 302:	52 9a       	sbi	0x0a, 2	; 10
	
	Shift_Reg_Cntrl_PORT |= 1<<SReset;
 304:	5d 9a       	sbi	0x0b, 5	; 11
	SPI_Init();
 306:	0e 94 52 00 	call	0xa4	; 0xa4 <SPI_Init>
	Shift_Reg_Cntrl_PORT &= ~(1<<SROE);
 30a:	5b 98       	cbi	0x0b, 3	; 11
	PORTD |= 1<<6;
 30c:	5e 9a       	sbi	0x0b, 6	; 11
	
	ControlDirection |= ( 1<<XTAL1 | 1<<OE | 1<<WR | 1<<BS1_PAGEL | 1<<XA0 | 1<<XA1_BS2);
 30e:	87 b1       	in	r24, 0x07	; 7
 310:	8d 67       	ori	r24, 0x7D	; 125
 312:	87 b9       	out	0x07, r24	; 7
	ControlDirection &= ~(1<<RDY_BSY);
 314:	39 98       	cbi	0x07, 1	; 7
	ControlPort &= ~(1<<XTAL1);
 316:	40 98       	cbi	0x08, 0	; 8
	DATADirection = 0xFF;
 318:	8f ef       	ldi	r24, 0xFF	; 255
 31a:	81 b9       	out	0x01, r24	; 1
	
	EnterParallelProgrammingMode();
 31c:	0e 94 5d 00 	call	0xba	; 0xba <EnterParallelProgrammingMode>
	ReadSignatureBytes();
 320:	0e 94 2d 01 	call	0x25a	; 0x25a <ReadSignatureBytes>
 324:	ff cf       	rjmp	.-2      	; 0x324 <main+0x2c>

00000326 <_exit>:
 326:	f8 94       	cli

00000328 <__stop_program>:
 328:	ff cf       	rjmp	.-2      	; 0x328 <__stop_program>
